target datalayout = "e-m:e-p270:32:32-p271:32:32-p272:64:64-i64:64-i128:128-f80:128-n8:16:32:64-S128"
target triple = "x86_64-pc-linux-gnu"

%"class.Imf_3_4::TypedAttribute" = type { %"class.Imf_3_4::Attribute", %"class.Imf_3_4::CompressedIDManifest" }
%"class.Imf_3_4::Attribute" = type { ptr }
%"class.Imf_3_4::CompressedIDManifest" = type { i32, i64, ptr }

@.str.2 = private unnamed_addr constant [48 x i8] c"Invalid size field reading idmanifest attribute\00", align 1
@_ZTIN7Iex_3_48InputExcE = external constant ptr

; Function Attrs: inlinehint mustprogress uwtable
define linkonce_odr hidden noundef zeroext i1 @_ZN7Imf_3_48StreamIO9readCharsERNS_7IStreamEPci(ptr noundef nonnull align 8 dereferenceable(40) %0, ptr noundef %1, i32 noundef %2) #11 comdat align 2 {
  %4 = alloca ptr, align 8
  %5 = alloca ptr, align 8
  %6 = alloca i32, align 4
  store ptr %0, ptr %4, align 8, !tbaa !29
  store ptr %1, ptr %5, align 8, !tbaa !26
  store i32 %2, ptr %6, align 4, !tbaa !16
  %7 = load ptr, ptr %4, align 8, !tbaa !29
  %8 = load ptr, ptr %5, align 8, !tbaa !26
  %9 = load i32, ptr %6, align 4, !tbaa !16
  %10 = load ptr, ptr %7, align 8, !tbaa !10
  %11 = getelementptr inbounds ptr, ptr %10, i64 3
  %12 = load ptr, ptr %11, align 8
  %13 = call noundef zeroext i1 %12(ptr noundef nonnull align 8 dereferenceable(40) %7, ptr noundef %8, i32 noundef %9)
  ret i1 %13
}

; Function Attrs: inlinehint mustprogress uwtable
define linkonce_odr hidden void @_ZN7Imf_3_43Xdr17readUnsignedCharsINS_8StreamIOENS_7IStreamEEEvRT0_Phi(ptr noundef nonnull align 8 dereferenceable(40) %0, ptr noundef %1, i32 noundef %2) #11 comdat {
  %4 = alloca ptr, align 8
  %5 = alloca ptr, align 8
  %6 = alloca i32, align 4
  store ptr %0, ptr %4, align 8, !tbaa !29
  store ptr %1, ptr %5, align 8, !tbaa !26
  store i32 %2, ptr %6, align 4, !tbaa !16
  %7 = load ptr, ptr %4, align 8, !tbaa !29
  %8 = load ptr, ptr %5, align 8, !tbaa !26
  %9 = load i32, ptr %6, align 4, !tbaa !16
  %10 = call noundef zeroext i1 @_ZN7Imf_3_48StreamIO9readCharsERNS_7IStreamEPci(ptr noundef nonnull align 8 dereferenceable(40) %7, ptr noundef %8, i32 noundef %9)
  ret void
}

; Function Attrs: inlinehint mustprogress uwtable
define linkonce_odr hidden void @_ZN7Imf_3_43Xdr4readINS_8StreamIOENS_7IStreamEEEvRT0_Pci(ptr noundef nonnull align 8 dereferenceable(40) %0, ptr noundef %1, i32 noundef %2) #11 comdat {
  %4 = alloca ptr, align 8
  %5 = alloca ptr, align 8
  %6 = alloca i32, align 4
  store ptr %0, ptr %4, align 8, !tbaa !29
  store ptr %1, ptr %5, align 8, !tbaa !26
  store i32 %2, ptr %6, align 4, !tbaa !16
  %7 = load ptr, ptr %4, align 8, !tbaa !29
  %8 = load ptr, ptr %5, align 8, !tbaa !26
  %9 = load i32, ptr %6, align 4, !tbaa !16
  %10 = call noundef zeroext i1 @_ZN7Imf_3_48StreamIO9readCharsERNS_7IStreamEPci(ptr noundef nonnull align 8 dereferenceable(40) %7, ptr noundef %8, i32 noundef %9)
  ret void
}

; Function Attrs: mustprogress uwtable
define linkonce_odr hidden void @_ZN7Imf_3_43Xdr4readINS_8StreamIOENS_7IStreamEEEvRT0_Rm(ptr noundef nonnull align 8 dereferenceable(40) %0, ptr noundef nonnull align 8 dereferenceable(8) %1) #4 comdat {
  %3 = alloca ptr, align 8
  %4 = alloca ptr, align 8
  %5 = alloca [8 x i8], align 1
  store ptr %0, ptr %3, align 8, !tbaa !29
  store ptr %1, ptr %4, align 8, !tbaa !31
  call void @llvm.lifetime.start.p0(i64 8, ptr %5) #3
  %6 = load ptr, ptr %3, align 8, !tbaa !29
  %7 = getelementptr inbounds [8 x i8], ptr %5, i64 0, i64 0
  call void @_ZN7Imf_3_43Xdr17readUnsignedCharsINS_8StreamIOENS_7IStreamEEEvRT0_Phi(ptr noundef nonnull align 8 dereferenceable(40) %6, ptr noundef %7, i32 noundef 8)
  %8 = getelementptr inbounds [8 x i8], ptr %5, i64 0, i64 0
  %9 = load i8, ptr %8, align 1, !tbaa !28
  %10 = zext i8 %9 to i64
  %11 = and i64 %10, 255
  %12 = getelementptr inbounds [8 x i8], ptr %5, i64 0, i64 1
  %13 = load i8, ptr %12, align 1, !tbaa !28
  %14 = zext i8 %13 to i64
  %15 = shl i64 %14, 8
  %16 = and i64 %15, 65280
  %17 = or i64 %11, %16
  %18 = getelementptr inbounds [8 x i8], ptr %5, i64 0, i64 2
  %19 = load i8, ptr %18, align 1, !tbaa !28
  %20 = zext i8 %19 to i64
  %21 = shl i64 %20, 16
  %22 = and i64 %21, 16711680
  %23 = or i64 %17, %22
  %24 = getelementptr inbounds [8 x i8], ptr %5, i64 0, i64 3
  %25 = load i8, ptr %24, align 1, !tbaa !28
  %26 = zext i8 %25 to i64
  %27 = shl i64 %26, 24
  %28 = and i64 %27, 4278190080
  %29 = or i64 %23, %28
  %30 = getelementptr inbounds [8 x i8], ptr %5, i64 0, i64 4
  %31 = load i8, ptr %30, align 1, !tbaa !28
  %32 = zext i8 %31 to i64
  %33 = shl i64 %32, 32
  %34 = and i64 %33, 1095216660480
  %35 = or i64 %29, %34
  %36 = getelementptr inbounds [8 x i8], ptr %5, i64 0, i64 5
  %37 = load i8, ptr %36, align 1, !tbaa !28
  %38 = zext i8 %37 to i64
  %39 = shl i64 %38, 40
  %40 = and i64 %39, 280375465082880
  %41 = or i64 %35, %40
  %42 = getelementptr inbounds [8 x i8], ptr %5, i64 0, i64 6
  %43 = load i8, ptr %42, align 1, !tbaa !28
  %44 = zext i8 %43 to i64
  %45 = shl i64 %44, 48
  %46 = and i64 %45, 71776119061217280
  %47 = or i64 %41, %46
  %48 = getelementptr inbounds [8 x i8], ptr %5, i64 0, i64 7
  %49 = load i8, ptr %48, align 1, !tbaa !28
  %50 = zext i8 %49 to i64
  %51 = shl i64 %50, 56
  %52 = or i64 %47, %51
  %53 = load ptr, ptr %4, align 8, !tbaa !31
  store i64 %52, ptr %53, align 8, !tbaa !24
  call void @llvm.lifetime.end.p0(i64 8, ptr %5) #3
  ret void
}

; Function Attrs: mustprogress uwtable
define void @_ZN7Imf_3_414TypedAttributeINS_20CompressedIDManifestEE13readValueFromERNS_7IStreamEii(ptr noundef nonnull align 8 dereferenceable(32) %0, ptr noundef nonnull align 8 dereferenceable(40) %1, i32 noundef %2, i32 noundef %3) unnamed_addr #4 align 2 personality ptr @__gxx_personality_v0 {
  %5 = alloca ptr, align 8
  %6 = alloca ptr, align 8
  %7 = alloca i32, align 4
  %8 = alloca i32, align 4
  %9 = alloca ptr, align 8
  %10 = alloca i32, align 4
  %11 = alloca i64, align 8
  %12 = alloca ptr, align 8
  store ptr %0, ptr %5, align 8, !tbaa !3
  store ptr %1, ptr %6, align 8, !tbaa !29
  store i32 %2, ptr %7, align 4, !tbaa !16
  store i32 %3, ptr %8, align 4, !tbaa !16
  %13 = load ptr, ptr %5, align 8
  %14 = load i32, ptr %7, align 4, !tbaa !16
  %15 = icmp slt i32 %14, 8
  br i1 %15, label %16, label %23

16:                                               ; preds = %4
  %17 = call ptr @__cxa_allocate_exception(i64 72) #3
  invoke void @_ZN7Iex_3_48InputExcC1EPKc(ptr noundef nonnull align 8 dereferenceable(72) %17, ptr noundef @.str.2)
          to label %18 unwind label %19

18:                                               ; preds = %16
  call void @__cxa_throw(ptr %17, ptr @_ZTIN7Iex_3_48InputExcE, ptr @_ZN7Iex_3_48InputExcD1Ev) #16
  unreachable

19:                                               ; preds = %16
  %20 = landingpad { ptr, i32 }
          cleanup
  %21 = extractvalue { ptr, i32 } %20, 0
  store ptr %21, ptr %9, align 8
  %22 = extractvalue { ptr, i32 } %20, 1
  store i32 %22, ptr %10, align 4
  call void @__cxa_free_exception(ptr %17) #3
  br label %59

23:                                               ; preds = %4
  %24 = load i32, ptr %7, align 4, !tbaa !16
  %25 = sext i32 %24 to i64
  %26 = sub i64 %25, 8
  %27 = trunc i64 %26 to i32
  %28 = getelementptr inbounds nuw %"class.Imf_3_4::TypedAttribute", ptr %13, i32 0, i32 1
  %29 = getelementptr inbounds nuw %"class.Imf_3_4::CompressedIDManifest", ptr %28, i32 0, i32 0
  store i32 %27, ptr %29, align 8, !tbaa !27
  %30 = getelementptr inbounds nuw %"class.Imf_3_4::TypedAttribute", ptr %13, i32 0, i32 1
  %31 = getelementptr inbounds nuw %"class.Imf_3_4::CompressedIDManifest", ptr %30, i32 0, i32 2
  %32 = load ptr, ptr %31, align 8, !tbaa !25
  %33 = icmp ne ptr %32, null
  br i1 %33, label %34, label %40

34:                                               ; preds = %23
  %35 = getelementptr inbounds nuw %"class.Imf_3_4::TypedAttribute", ptr %13, i32 0, i32 1
  %36 = getelementptr inbounds nuw %"class.Imf_3_4::CompressedIDManifest", ptr %35, i32 0, i32 2
  %37 = load ptr, ptr %36, align 8, !tbaa !25
  call void @free(ptr noundef %37) #3
  %38 = getelementptr inbounds nuw %"class.Imf_3_4::TypedAttribute", ptr %13, i32 0, i32 1
  %39 = getelementptr inbounds nuw %"class.Imf_3_4::CompressedIDManifest", ptr %38, i32 0, i32 2
  store ptr null, ptr %39, align 8, !tbaa !25
  br label %40

40:                                               ; preds = %34, %23
  call void @llvm.lifetime.start.p0(i64 8, ptr %11) #3
  %41 = load ptr, ptr %6, align 8, !tbaa !29
  call void @_ZN7Imf_3_43Xdr4readINS_8StreamIOENS_7IStreamEEEvRT0_Rm(ptr noundef nonnull align 8 dereferenceable(40) %41, ptr noundef nonnull align 8 dereferenceable(8) %11)
  %42 = load i64, ptr %11, align 8, !tbaa !24
  %43 = getelementptr inbounds nuw %"class.Imf_3_4::TypedAttribute", ptr %13, i32 0, i32 1
  %44 = getelementptr inbounds nuw %"class.Imf_3_4::CompressedIDManifest", ptr %43, i32 0, i32 1
  store i64 %42, ptr %44, align 8, !tbaa !18
  %45 = load i32, ptr %7, align 4, !tbaa !16
  %46 = sext i32 %45 to i64
  %47 = sub i64 %46, 8
  %48 = call noalias ptr @malloc(i64 noundef %47) #17
  %49 = getelementptr inbounds nuw %"class.Imf_3_4::TypedAttribute", ptr %13, i32 0, i32 1
  %50 = getelementptr inbounds nuw %"class.Imf_3_4::CompressedIDManifest", ptr %49, i32 0, i32 2
  store ptr %48, ptr %50, align 8, !tbaa !25
  call void @llvm.lifetime.start.p0(i64 8, ptr %12) #3
  %51 = getelementptr inbounds nuw %"class.Imf_3_4::TypedAttribute", ptr %13, i32 0, i32 1
  %52 = getelementptr inbounds nuw %"class.Imf_3_4::CompressedIDManifest", ptr %51, i32 0, i32 2
  %53 = load ptr, ptr %52, align 8, !tbaa !25
  store ptr %53, ptr %12, align 8, !tbaa !26
  %54 = load ptr, ptr %6, align 8, !tbaa !29
  %55 = load ptr, ptr %12, align 8, !tbaa !26
  %56 = getelementptr inbounds nuw %"class.Imf_3_4::TypedAttribute", ptr %13, i32 0, i32 1
  %57 = getelementptr inbounds nuw %"class.Imf_3_4::CompressedIDManifest", ptr %56, i32 0, i32 0
  %58 = load i32, ptr %57, align 8, !tbaa !27
  call void @_ZN7Imf_3_43Xdr4readINS_8StreamIOENS_7IStreamEEEvRT0_Pci(ptr noundef nonnull align 8 dereferenceable(40) %54, ptr noundef %55, i32 noundef %58)
  call void @llvm.lifetime.end.p0(i64 8, ptr %12) #3
  call void @llvm.lifetime.end.p0(i64 8, ptr %11) #3
  ret void

59:                                               ; preds = %19
  %60 = load ptr, ptr %9, align 8
  %61 = load i32, ptr %10, align 4
  %62 = insertvalue { ptr, i32 } poison, ptr %60, 0
  %63 = insertvalue { ptr, i32 } %62, i32 %61, 1
  resume { ptr, i32 } %63
}