; Function Attrs: mustprogress uwtable
define void @_ZN7Imf_3_414TypedAttributeINS_20CompressedIDManifestEE13readValueFromERNS_7IStreamEii(ptr noundef nonnull align 8 captures(none) dereferenceable(32) %0, ptr noundef nonnull align 8 dereferenceable(40) %1, i32 noundef %2, i32 %3) unnamed_addr #3 align 2 personality ptr @__gxx_personality_v0 {
  %5 = alloca [8 x i8], align 8
  %6 = icmp slt i32 %2, 8
  br i1 %6, label %7, label %12

7:                                                ; preds = %4
  %8 = tail call ptr @__cxa_allocate_exception(i64 72) #17
  invoke void @_ZN7Iex_3_48InputExcC1EPKc(ptr noundef nonnull align 8 dereferenceable(72) %8, ptr noundef nonnull @.str.2)
          to label %9 unwind label %10

9:                                                ; preds = %7
  tail call void @__cxa_throw(ptr nonnull %8, ptr nonnull @_ZTIN7Iex_3_48InputExcE, ptr nonnull @_ZN7Iex_3_48InputExcD1Ev) #20
  unreachable

10:                                               ; preds = %7
  %11 = landingpad { ptr, i32 }
          cleanup
  tail call void @__cxa_free_exception(ptr nonnull %8) #17
  resume { ptr, i32 } %11

12:                                               ; preds = %4
  %13 = zext nneg i32 %2 to i64
  %14 = add nsw i64 %13, -8
  %15 = trunc nuw nsw i64 %14 to i32
  %16 = getelementptr inbounds nuw i8, ptr %0, i64 8
  store i32 %15, ptr %16, align 8, !tbaa !17
  %17 = getelementptr inbounds nuw i8, ptr %0, i64 24
  %18 = load ptr, ptr %17, align 8, !tbaa !16
  %.not = icmp eq ptr %18, null
  br i1 %.not, label %20, label %19

19:                                               ; preds = %12
  tail call void @free(ptr noundef nonnull %18) #17
  store ptr null, ptr %17, align 8, !tbaa !16
  br label %20

20:                                               ; preds = %19, %12
  call void @llvm.lifetime.start.p0(i64 8, ptr nonnull %5) #17
  %21 = load ptr, ptr %1, align 8, !tbaa !3
  %22 = getelementptr inbounds nuw i8, ptr %21, i64 24
  %23 = load ptr, ptr %22, align 8
  %24 = call noundef zeroext i1 %23(ptr noundef nonnull align 8 dereferenceable(40) %1, ptr noundef nonnull %5, i32 noundef 8)
  %25 = load i64, ptr %5, align 8
  call void @llvm.lifetime.end.p0(i64 8, ptr nonnull %5) #17
  %26 = getelementptr inbounds nuw i8, ptr %0, i64 16
  store i64 %25, ptr %26, align 8, !tbaa !6
  %27 = call noalias ptr @malloc(i64 noundef %14) #21
  store ptr %27, ptr %17, align 8, !tbaa !16
  %28 = load i32, ptr %16, align 8, !tbaa !17
  %29 = load ptr, ptr %1, align 8, !tbaa !3
  %30 = getelementptr inbounds nuw i8, ptr %29, i64 24
  %31 = load ptr, ptr %30, align 8
  %32 = call noundef zeroext i1 %31(ptr noundef nonnull align 8 dereferenceable(40) %1, ptr noundef %27, i32 noundef %28)
  ret void
}